target datalayout = "e-m:e-p270:32:32-p271:32:32-p272:64:64-i64:64-i128:128-f80:128-n8:16:32:64-S128"
target triple = "x86_64-pc-linux-gnu"

%struct.tr2_tgt = type { ptr, ptr, ptr, ptr, ptr, ptr, ptr, ptr, ptr, ptr, ptr, ptr, ptr, ptr, ptr, ptr, ptr, ptr, ptr, ptr, ptr, ptr, ptr, ptr, ptr, ptr, ptr, ptr, ptr, ptr }

@trace2_enabled = internal global i32 0, align 4
@tr2_tgt_builtins = internal global [4 x ptr] [ptr @tr2_tgt_normal, ptr @tr2_tgt_perf, ptr @tr2_tgt_event, ptr null], align 16
@.str.3 = private unnamed_addr constant [20 x i8] c"thread-proc on main\00", align 1

; Function Attrs: nounwind uwtable
define dso_local void @trace2_thread_exit_fl(ptr noundef %0, i32 noundef %1) #0 {
  %3 = alloca ptr, align 8
  %4 = alloca i32, align 4
  %5 = alloca ptr, align 8
  %6 = alloca i32, align 4
  %7 = alloca i64, align 8
  %8 = alloca i64, align 8
  %9 = alloca i64, align 8
  %10 = alloca i32, align 4
  store ptr %0, ptr %3, align 8, !tbaa !4
  store i32 %1, ptr %4, align 4, !tbaa !9
  call void @llvm.lifetime.start.p0(i64 8, ptr %5) #9
  call void @llvm.lifetime.start.p0(i64 4, ptr %6) #9
  call void @llvm.lifetime.start.p0(i64 8, ptr %7) #9
  call void @llvm.lifetime.start.p0(i64 8, ptr %8) #9
  call void @llvm.lifetime.start.p0(i64 8, ptr %9) #9
  %11 = load i32, ptr @trace2_enabled, align 4, !tbaa !9
  %12 = icmp ne i32 %11, 0
  br i1 %12, label %14, label %13

13:                                               ; preds = %2
  store i32 1, ptr %10, align 4
  br label %63

14:                                               ; preds = %2
  %15 = call i32 @tr2tls_is_main_thread()
  %16 = icmp ne i32 %15, 0
  br i1 %16, label %17, label %20

17:                                               ; preds = %14
  %18 = load ptr, ptr %3, align 8, !tbaa !4
  %19 = load i32, ptr %4, align 4, !tbaa !9
  call void (ptr, i32, ptr, ptr, ptr, ptr, ...) @trace2_region_leave_printf_fl(ptr noundef %18, i32 noundef %19, ptr noundef null, ptr noundef null, ptr noundef null, ptr noundef @.str.3)
  store i32 1, ptr %10, align 4
  br label %63

20:                                               ; preds = %14
  %21 = call i64 @getnanotime()
  %22 = udiv i64 %21, 1000
  store i64 %22, ptr %7, align 8, !tbaa !21
  %23 = load i64, ptr %7, align 8, !tbaa !21
  %24 = call i64 @tr2tls_absolute_elapsed(i64 noundef %23)
  store i64 %24, ptr %8, align 8, !tbaa !21
  call void @tr2tls_pop_unwind_self()
  %25 = load i64, ptr %7, align 8, !tbaa !21
  %26 = call i64 @tr2tls_region_elasped_self(i64 noundef %25)
  store i64 %26, ptr %9, align 8, !tbaa !21
  call void @tr2_emit_per_thread_timers(ptr noundef @tr2_tgt_emit_a_timer)
  call void @tr2_emit_per_thread_counters(ptr noundef @tr2_tgt_emit_a_counter)
  call void @tr2tls_lock()
  call void @tr2_update_final_timers()
  call void @tr2_update_final_counters()
  call void @tr2tls_unlock()
  store i32 0, ptr %6, align 4, !tbaa !9
  %27 = load i32, ptr %6, align 4, !tbaa !9
  %28 = sext i32 %27 to i64
  %29 = getelementptr inbounds [4 x ptr], ptr @tr2_tgt_builtins, i64 0, i64 %28
  %30 = load ptr, ptr %29, align 8, !tbaa !11
  store ptr %30, ptr %5, align 8, !tbaa !11
  br label %31

31:                                               ; preds = %55, %20
  %32 = load ptr, ptr %5, align 8, !tbaa !11
  %33 = icmp ne ptr %32, null
  br i1 %33, label %34, label %62

34:                                               ; preds = %31
  %35 = load ptr, ptr %5, align 8, !tbaa !11
  %36 = getelementptr inbounds nuw %struct.tr2_tgt, ptr %35, i32 0, i32 0
  %37 = load ptr, ptr %36, align 8, !tbaa !13
  %38 = call i32 @tr2_dst_trace_want(ptr noundef %37)
  %39 = icmp ne i32 %38, 0
  br i1 %39, label %40, label %54

40:                                               ; preds = %34
  %41 = load ptr, ptr %5, align 8, !tbaa !11
  %42 = getelementptr inbounds nuw %struct.tr2_tgt, ptr %41, i32 0, i32 18
  %43 = load ptr, ptr %42, align 8, !tbaa !74
  %44 = icmp ne ptr %43, null
  br i1 %44, label %45, label %53

45:                                               ; preds = %40
  %46 = load ptr, ptr %5, align 8, !tbaa !11
  %47 = getelementptr inbounds nuw %struct.tr2_tgt, ptr %46, i32 0, i32 18
  %48 = load ptr, ptr %47, align 8, !tbaa !74
  %49 = load ptr, ptr %3, align 8, !tbaa !4
  %50 = load i32, ptr %4, align 4, !tbaa !9
  %51 = load i64, ptr %8, align 8, !tbaa !21
  %52 = load i64, ptr %9, align 8, !tbaa !21
  call void %48(ptr noundef %49, i32 noundef %50, i64 noundef %51, i64 noundef %52)
  br label %53

53:                                               ; preds = %45, %40
  br label %54

54:                                               ; preds = %53, %34
  br label %55

55:                                               ; preds = %54
  %56 = load i32, ptr %6, align 4, !tbaa !9
  %57 = add nsw i32 %56, 1
  store i32 %57, ptr %6, align 4, !tbaa !9
  %58 = load i32, ptr %6, align 4, !tbaa !9
  %59 = sext i32 %58 to i64
  %60 = getelementptr inbounds [4 x ptr], ptr @tr2_tgt_builtins, i64 0, i64 %59
  %61 = load ptr, ptr %60, align 8, !tbaa !11
  store ptr %61, ptr %5, align 8, !tbaa !11
  br label %31, !llvm.loop !75

62:                                               ; preds = %31
  call void @tr2tls_unset_self()
  store i32 0, ptr %10, align 4
  br label %63

63:                                               ; preds = %62, %17, %13
  call void @llvm.lifetime.end.p0(i64 8, ptr %9) #9
  call void @llvm.lifetime.end.p0(i64 8, ptr %8) #9
  call void @llvm.lifetime.end.p0(i64 8, ptr %7) #9
  call void @llvm.lifetime.end.p0(i64 4, ptr %6) #9
  call void @llvm.lifetime.end.p0(i64 8, ptr %5) #9
  %64 = load i32, ptr %10, align 4
  switch i32 %64, label %66 [
    i32 0, label %65
    i32 1, label %65
  ]

65:                                               ; preds = %63, %63
  ret void

66:                                               ; preds = %63
  unreachable
}