; Function Attrs: nounwind uwtable
define dso_local void @trace2_thread_exit_fl(ptr noundef %0, i32 noundef %1) local_unnamed_addr #0 {
  %.b = load i1, ptr @trace2_enabled, align 4
  br i1 %.b, label %3, label %22

3:                                                ; preds = %2
  %4 = tail call i32 @tr2tls_is_main_thread() #11
  %.not = icmp eq i32 %4, 0
  br i1 %.not, label %6, label %5

5:                                                ; preds = %3
  tail call void (ptr, i32, ptr, ptr, ptr, ptr, ...) @trace2_region_leave_printf_fl(ptr noundef %0, i32 noundef %1, ptr noundef null, ptr noundef null, ptr noundef null, ptr noundef nonnull @.str.3)
  br label %22

6:                                                ; preds = %3
  %7 = tail call i64 @getnanotime() #11
  %8 = udiv i64 %7, 1000
  %9 = tail call i64 @tr2tls_absolute_elapsed(i64 noundef %8) #11
  tail call void @tr2tls_pop_unwind_self() #11
  %10 = tail call i64 @tr2tls_region_elasped_self(i64 noundef %8) #11
  tail call void @tr2_emit_per_thread_timers(ptr noundef nonnull @tr2_tgt_emit_a_timer) #11
  tail call void @tr2_emit_per_thread_counters(ptr noundef nonnull @tr2_tgt_emit_a_counter) #11
  tail call void @tr2tls_lock() #11
  tail call void @tr2_update_final_timers() #11
  tail call void @tr2_update_final_counters() #11
  tail call void @tr2tls_unlock() #11
  br label %11

11:                                               ; preds = %6, %18
  %indvars.iv = phi i64 [ 0, %6 ], [ %indvars.iv.next, %18 ]
  %.020 = phi ptr [ @tr2_tgt_normal, %6 ], [ %20, %18 ]
  %12 = load ptr, ptr %.020, align 8, !tbaa !14
  %13 = tail call i32 @tr2_dst_trace_want(ptr noundef %12) #11
  %.not17 = icmp eq i32 %13, 0
  br i1 %.not17, label %18, label %14

14:                                               ; preds = %11
  %15 = getelementptr inbounds nuw i8, ptr %.020, i64 144
  %16 = load ptr, ptr %15, align 8, !tbaa !72
  %.not18 = icmp eq ptr %16, null
  br i1 %.not18, label %18, label %17

17:                                               ; preds = %14
  tail call void %16(ptr noundef %0, i32 noundef %1, i64 noundef %9, i64 noundef %10) #11
  br label %18

18:                                               ; preds = %11, %17, %14
  %indvars.iv.next = add nuw nsw i64 %indvars.iv, 1
  %19 = getelementptr inbounds nuw [4 x ptr], ptr @tr2_tgt_builtins, i64 0, i64 %indvars.iv.next
  %20 = load ptr, ptr %19, align 8, !tbaa !10
  %.not16 = icmp eq i64 %indvars.iv.next, 3
  br i1 %.not16, label %21, label %11, !llvm.loop !73

21:                                               ; preds = %18
  tail call void @tr2tls_unset_self() #11
  br label %22

22:                                               ; preds = %2, %21, %5
  ret void
}